target datalayout = "e-m:e-p270:32:32-p271:32:32-p272:64:64-i64:64-i128:128-f80:128-n8:16:32:64-S128"
target triple = "x86_64-pc-linux-gnu"

%struct._lv_table_t = type { %struct._lv_obj_t, i32, i32, ptr, ptr, ptr, i32, i32 }
%struct._lv_obj_t = type { ptr, ptr, ptr, ptr, ptr, %struct.lv_area_t, i32, i16, i16 }
%struct.lv_area_t = type { i32, i32, i32, i32 }
%union.lv_style_value_t = type { ptr }

; Function Attrs: inlinehint nounwind uwtable
define internal i32 @lv_obj_get_style_max_height(ptr noundef %0, i32 noundef %1) #4 {
  %3 = alloca ptr, align 8
  %4 = alloca i32, align 4
  %5 = alloca %union.lv_style_value_t, align 8
  store ptr %0, ptr %3, align 8, !tbaa !8
  store i32 %1, ptr %4, align 4, !tbaa !25
  call void @llvm.lifetime.start.p0(i64 8, ptr %5) #6
  %6 = load ptr, ptr %3, align 8, !tbaa !8
  %7 = load i32, ptr %4, align 4, !tbaa !25
  %8 = call ptr @lv_obj_get_style_prop(ptr noundef %6, i32 noundef %7, i8 noundef zeroext 7)
  %9 = getelementptr inbounds nuw %union.lv_style_value_t, ptr %5, i32 0, i32 0
  store ptr %8, ptr %9, align 8
  %10 = load i32, ptr %5, align 8, !tbaa !59
  call void @llvm.lifetime.end.p0(i64 8, ptr %5) #6
  ret i32 %10
}

; Function Attrs: inlinehint nounwind uwtable
define internal i32 @lv_obj_get_style_min_height(ptr noundef %0, i32 noundef %1) #4 {
  %3 = alloca ptr, align 8
  %4 = alloca i32, align 4
  %5 = alloca %union.lv_style_value_t, align 8
  store ptr %0, ptr %3, align 8, !tbaa !8
  store i32 %1, ptr %4, align 4, !tbaa !25
  call void @llvm.lifetime.start.p0(i64 8, ptr %5) #6
  %6 = load ptr, ptr %3, align 8, !tbaa !8
  %7 = load i32, ptr %4, align 4, !tbaa !25
  %8 = call ptr @lv_obj_get_style_prop(ptr noundef %6, i32 noundef %7, i8 noundef zeroext 6)
  %9 = getelementptr inbounds nuw %union.lv_style_value_t, ptr %5, i32 0, i32 0
  store ptr %8, ptr %9, align 8
  %10 = load i32, ptr %5, align 8, !tbaa !59
  call void @llvm.lifetime.end.p0(i64 8, ptr %5) #6
  ret i32 %10
}

; Function Attrs: inlinehint nounwind uwtable
define internal ptr @lv_obj_get_style_text_font(ptr noundef %0, i32 noundef %1) #4 {
  %3 = alloca ptr, align 8
  %4 = alloca i32, align 4
  %5 = alloca %union.lv_style_value_t, align 8
  store ptr %0, ptr %3, align 8, !tbaa !8
  store i32 %1, ptr %4, align 4, !tbaa !25
  call void @llvm.lifetime.start.p0(i64 8, ptr %5) #6
  %6 = load ptr, ptr %3, align 8, !tbaa !8
  %7 = load i32, ptr %4, align 4, !tbaa !25
  %8 = call ptr @lv_obj_get_style_prop(ptr noundef %6, i32 noundef %7, i8 noundef zeroext 90)
  %9 = getelementptr inbounds nuw %union.lv_style_value_t, ptr %5, i32 0, i32 0
  store ptr %8, ptr %9, align 8
  %10 = load ptr, ptr %5, align 8, !tbaa !59
  call void @llvm.lifetime.end.p0(i64 8, ptr %5) #6
  ret ptr %10
}

; Function Attrs: inlinehint nounwind uwtable
define internal i32 @lv_obj_get_style_text_line_space(ptr noundef %0, i32 noundef %1) #4 {
  %3 = alloca ptr, align 8
  %4 = alloca i32, align 4
  %5 = alloca %union.lv_style_value_t, align 8
  store ptr %0, ptr %3, align 8, !tbaa !8
  store i32 %1, ptr %4, align 4, !tbaa !25
  call void @llvm.lifetime.start.p0(i64 8, ptr %5) #6
  %6 = load ptr, ptr %3, align 8, !tbaa !8
  %7 = load i32, ptr %4, align 4, !tbaa !25
  %8 = call ptr @lv_obj_get_style_prop(ptr noundef %6, i32 noundef %7, i8 noundef zeroext 92)
  %9 = getelementptr inbounds nuw %union.lv_style_value_t, ptr %5, i32 0, i32 0
  store ptr %8, ptr %9, align 8
  %10 = load i32, ptr %5, align 8, !tbaa !59
  call void @llvm.lifetime.end.p0(i64 8, ptr %5) #6
  ret i32 %10
}

; Function Attrs: inlinehint nounwind uwtable
define internal i32 @lv_obj_get_style_text_letter_space(ptr noundef %0, i32 noundef %1) #4 {
  %3 = alloca ptr, align 8
  %4 = alloca i32, align 4
  %5 = alloca %union.lv_style_value_t, align 8
  store ptr %0, ptr %3, align 8, !tbaa !8
  store i32 %1, ptr %4, align 4, !tbaa !25
  call void @llvm.lifetime.start.p0(i64 8, ptr %5) #6
  %6 = load ptr, ptr %3, align 8, !tbaa !8
  %7 = load i32, ptr %4, align 4, !tbaa !25
  %8 = call ptr @lv_obj_get_style_prop(ptr noundef %6, i32 noundef %7, i8 noundef zeroext 91)
  %9 = getelementptr inbounds nuw %union.lv_style_value_t, ptr %5, i32 0, i32 0
  store ptr %8, ptr %9, align 8
  %10 = load i32, ptr %5, align 8, !tbaa !59
  call void @llvm.lifetime.end.p0(i64 8, ptr %5) #6
  ret i32 %10
}

; Function Attrs: inlinehint nounwind uwtable
define internal i32 @lv_obj_get_style_pad_bottom(ptr noundef %0, i32 noundef %1) #4 {
  %3 = alloca ptr, align 8
  %4 = alloca i32, align 4
  %5 = alloca %union.lv_style_value_t, align 8
  store ptr %0, ptr %3, align 8, !tbaa !8
  store i32 %1, ptr %4, align 4, !tbaa !25
  call void @llvm.lifetime.start.p0(i64 8, ptr %5) #6
  %6 = load ptr, ptr %3, align 8, !tbaa !8
  %7 = load i32, ptr %4, align 4, !tbaa !25
  %8 = call ptr @lv_obj_get_style_prop(ptr noundef %6, i32 noundef %7, i8 noundef zeroext 17)
  %9 = getelementptr inbounds nuw %union.lv_style_value_t, ptr %5, i32 0, i32 0
  store ptr %8, ptr %9, align 8
  %10 = load i32, ptr %5, align 8, !tbaa !59
  call void @llvm.lifetime.end.p0(i64 8, ptr %5) #6
  ret i32 %10
}

; Function Attrs: inlinehint nounwind uwtable
define internal i32 @lv_obj_get_style_pad_top(ptr noundef %0, i32 noundef %1) #4 {
  %3 = alloca ptr, align 8
  %4 = alloca i32, align 4
  %5 = alloca %union.lv_style_value_t, align 8
  store ptr %0, ptr %3, align 8, !tbaa !8
  store i32 %1, ptr %4, align 4, !tbaa !25
  call void @llvm.lifetime.start.p0(i64 8, ptr %5) #6
  %6 = load ptr, ptr %3, align 8, !tbaa !8
  %7 = load i32, ptr %4, align 4, !tbaa !25
  %8 = call ptr @lv_obj_get_style_prop(ptr noundef %6, i32 noundef %7, i8 noundef zeroext 16)
  %9 = getelementptr inbounds nuw %union.lv_style_value_t, ptr %5, i32 0, i32 0
  store ptr %8, ptr %9, align 8
  %10 = load i32, ptr %5, align 8, !tbaa !59
  call void @llvm.lifetime.end.p0(i64 8, ptr %5) #6
  ret i32 %10
}

; Function Attrs: inlinehint nounwind uwtable
define internal i32 @lv_obj_get_style_pad_right(ptr noundef %0, i32 noundef %1) #4 {
  %3 = alloca ptr, align 8
  %4 = alloca i32, align 4
  %5 = alloca %union.lv_style_value_t, align 8
  store ptr %0, ptr %3, align 8, !tbaa !8
  store i32 %1, ptr %4, align 4, !tbaa !25
  call void @llvm.lifetime.start.p0(i64 8, ptr %5) #6
  %6 = load ptr, ptr %3, align 8, !tbaa !8
  %7 = load i32, ptr %4, align 4, !tbaa !25
  %8 = call ptr @lv_obj_get_style_prop(ptr noundef %6, i32 noundef %7, i8 noundef zeroext 19)
  %9 = getelementptr inbounds nuw %union.lv_style_value_t, ptr %5, i32 0, i32 0
  store ptr %8, ptr %9, align 8
  %10 = load i32, ptr %5, align 8, !tbaa !59
  call void @llvm.lifetime.end.p0(i64 8, ptr %5) #6
  ret i32 %10
}

; Function Attrs: inlinehint nounwind uwtable
define internal i32 @lv_obj_get_style_pad_left(ptr noundef %0, i32 noundef %1) #4 {
  %3 = alloca ptr, align 8
  %4 = alloca i32, align 4
  %5 = alloca %union.lv_style_value_t, align 8
  store ptr %0, ptr %3, align 8, !tbaa !8
  store i32 %1, ptr %4, align 4, !tbaa !25
  call void @llvm.lifetime.start.p0(i64 8, ptr %5) #6
  %6 = load ptr, ptr %3, align 8, !tbaa !8
  %7 = load i32, ptr %4, align 4, !tbaa !25
  %8 = call ptr @lv_obj_get_style_prop(ptr noundef %6, i32 noundef %7, i8 noundef zeroext 18)
  %9 = getelementptr inbounds nuw %union.lv_style_value_t, ptr %5, i32 0, i32 0
  store ptr %8, ptr %9, align 8
  %10 = load i32, ptr %5, align 8, !tbaa !59
  call void @llvm.lifetime.end.p0(i64 8, ptr %5) #6
  ret i32 %10
}

; Function Attrs: nounwind uwtable
define internal void @refr_size_form_row(ptr noundef %0, i32 noundef %1) #0 {
  %3 = alloca ptr, align 8
  %4 = alloca i32, align 4
  %5 = alloca i32, align 4
  %6 = alloca i32, align 4
  %7 = alloca i32, align 4
  %8 = alloca i32, align 4
  %9 = alloca i32, align 4
  %10 = alloca i32, align 4
  %11 = alloca ptr, align 8
  %12 = alloca i32, align 4
  %13 = alloca i32, align 4
  %14 = alloca ptr, align 8
  %15 = alloca i32, align 4
  %16 = alloca i32, align 4
  store ptr %0, ptr %3, align 8, !tbaa !8
  store i32 %1, ptr %4, align 4, !tbaa !25
  call void @llvm.lifetime.start.p0(i64 4, ptr %5) #6
  %17 = load ptr, ptr %3, align 8, !tbaa !8
  %18 = call i32 @lv_obj_get_style_pad_left(ptr noundef %17, i32 noundef 327680)
  store i32 %18, ptr %5, align 4, !tbaa !25
  call void @llvm.lifetime.start.p0(i64 4, ptr %6) #6
  %19 = load ptr, ptr %3, align 8, !tbaa !8
  %20 = call i32 @lv_obj_get_style_pad_right(ptr noundef %19, i32 noundef 327680)
  store i32 %20, ptr %6, align 4, !tbaa !25
  call void @llvm.lifetime.start.p0(i64 4, ptr %7) #6
  %21 = load ptr, ptr %3, align 8, !tbaa !8
  %22 = call i32 @lv_obj_get_style_pad_top(ptr noundef %21, i32 noundef 327680)
  store i32 %22, ptr %7, align 4, !tbaa !25
  call void @llvm.lifetime.start.p0(i64 4, ptr %8) #6
  %23 = load ptr, ptr %3, align 8, !tbaa !8
  %24 = call i32 @lv_obj_get_style_pad_bottom(ptr noundef %23, i32 noundef 327680)
  store i32 %24, ptr %8, align 4, !tbaa !25
  call void @llvm.lifetime.start.p0(i64 4, ptr %9) #6
  %25 = load ptr, ptr %3, align 8, !tbaa !8
  %26 = call i32 @lv_obj_get_style_text_letter_space(ptr noundef %25, i32 noundef 327680)
  store i32 %26, ptr %9, align 4, !tbaa !25
  call void @llvm.lifetime.start.p0(i64 4, ptr %10) #6
  %27 = load ptr, ptr %3, align 8, !tbaa !8
  %28 = call i32 @lv_obj_get_style_text_line_space(ptr noundef %27, i32 noundef 327680)
  store i32 %28, ptr %10, align 4, !tbaa !25
  call void @llvm.lifetime.start.p0(i64 8, ptr %11) #6
  %29 = load ptr, ptr %3, align 8, !tbaa !8
  %30 = call ptr @lv_obj_get_style_text_font(ptr noundef %29, i32 noundef 327680)
  store ptr %30, ptr %11, align 8, !tbaa !55
  call void @llvm.lifetime.start.p0(i64 4, ptr %12) #6
  %31 = load ptr, ptr %3, align 8, !tbaa !8
  %32 = call i32 @lv_obj_get_style_min_height(ptr noundef %31, i32 noundef 327680)
  store i32 %32, ptr %12, align 4, !tbaa !25
  call void @llvm.lifetime.start.p0(i64 4, ptr %13) #6
  %33 = load ptr, ptr %3, align 8, !tbaa !8
  %34 = call i32 @lv_obj_get_style_max_height(ptr noundef %33, i32 noundef 327680)
  store i32 %34, ptr %13, align 4, !tbaa !25
  call void @llvm.lifetime.start.p0(i64 8, ptr %14) #6
  %35 = load ptr, ptr %3, align 8, !tbaa !8
  store ptr %35, ptr %14, align 8, !tbaa !10
  call void @llvm.lifetime.start.p0(i64 4, ptr %15) #6
  %36 = load i32, ptr %4, align 4, !tbaa !25
  store i32 %36, ptr %15, align 4, !tbaa !25
  br label %37

37:                                               ; preds = %85, %2
  %38 = load i32, ptr %15, align 4, !tbaa !25
  %39 = load ptr, ptr %14, align 8, !tbaa !10
  %40 = getelementptr inbounds nuw %struct._lv_table_t, ptr %39, i32 0, i32 2
  %41 = load i32, ptr %40, align 4, !tbaa !22
  %42 = icmp ult i32 %38, %41
  br i1 %42, label %43, label %88

43:                                               ; preds = %37
  call void @llvm.lifetime.start.p0(i64 4, ptr %16) #6
  %44 = load ptr, ptr %3, align 8, !tbaa !8
  %45 = load i32, ptr %15, align 4, !tbaa !25
  %46 = load ptr, ptr %11, align 8, !tbaa !55
  %47 = load i32, ptr %9, align 4, !tbaa !25
  %48 = load i32, ptr %10, align 4, !tbaa !25
  %49 = load i32, ptr %5, align 4, !tbaa !25
  %50 = load i32, ptr %6, align 4, !tbaa !25
  %51 = load i32, ptr %7, align 4, !tbaa !25
  %52 = load i32, ptr %8, align 4, !tbaa !25
  %53 = call i32 @get_row_height(ptr noundef %44, i32 noundef %45, ptr noundef %46, i32 noundef %47, i32 noundef %48, i32 noundef %49, i32 noundef %50, i32 noundef %51, i32 noundef %52)
  store i32 %53, ptr %16, align 4, !tbaa !25
  %54 = load i32, ptr %12, align 4, !tbaa !25
  %55 = load i32, ptr %16, align 4, !tbaa !25
  %56 = load i32, ptr %13, align 4, !tbaa !25
  %57 = icmp slt i32 %55, %56
  br i1 %57, label %58, label %60

58:                                               ; preds = %43
  %59 = load i32, ptr %16, align 4, !tbaa !25
  br label %62

60:                                               ; preds = %43
  %61 = load i32, ptr %13, align 4, !tbaa !25
  br label %62

62:                                               ; preds = %60, %58
  %63 = phi i32 [ %59, %58 ], [ %61, %60 ]
  %64 = icmp sgt i32 %54, %63
  br i1 %64, label %65, label %67

65:                                               ; preds = %62
  %66 = load i32, ptr %12, align 4, !tbaa !25
  br label %77

67:                                               ; preds = %62
  %68 = load i32, ptr %16, align 4, !tbaa !25
  %69 = load i32, ptr %13, align 4, !tbaa !25
  %70 = icmp slt i32 %68, %69
  br i1 %70, label %71, label %73

71:                                               ; preds = %67
  %72 = load i32, ptr %16, align 4, !tbaa !25
  br label %75

73:                                               ; preds = %67
  %74 = load i32, ptr %13, align 4, !tbaa !25
  br label %75

75:                                               ; preds = %73, %71
  %76 = phi i32 [ %72, %71 ], [ %74, %73 ]
  br label %77

77:                                               ; preds = %75, %65
  %78 = phi i32 [ %66, %65 ], [ %76, %75 ]
  %79 = load ptr, ptr %14, align 8, !tbaa !10
  %80 = getelementptr inbounds nuw %struct._lv_table_t, ptr %79, i32 0, i32 4
  %81 = load ptr, ptr %80, align 8, !tbaa !24
  %82 = load i32, ptr %15, align 4, !tbaa !25
  %83 = zext i32 %82 to i64
  %84 = getelementptr inbounds nuw i32, ptr %81, i64 %83
  store i32 %78, ptr %84, align 4, !tbaa !25
  call void @llvm.lifetime.end.p0(i64 4, ptr %16) #6
  br label %85

85:                                               ; preds = %77
  %86 = load i32, ptr %15, align 4, !tbaa !25
  %87 = add i32 %86, 1
  store i32 %87, ptr %15, align 4, !tbaa !25
  br label %37, !llvm.loop !60

88:                                               ; preds = %37
  %89 = load ptr, ptr %3, align 8, !tbaa !8
  %90 = call zeroext i1 @lv_obj_refresh_self_size(ptr noundef %89)
  %91 = load ptr, ptr %3, align 8, !tbaa !8
  call void @lv_obj_invalidate(ptr noundef %91)
  call void @llvm.lifetime.end.p0(i64 4, ptr %15) #6
  call void @llvm.lifetime.end.p0(i64 8, ptr %14) #6
  call void @llvm.lifetime.end.p0(i64 4, ptr %13) #6
  call void @llvm.lifetime.end.p0(i64 4, ptr %12) #6
  call void @llvm.lifetime.end.p0(i64 8, ptr %11) #6
  call void @llvm.lifetime.end.p0(i64 4, ptr %10) #6
  call void @llvm.lifetime.end.p0(i64 4, ptr %9) #6
  call void @llvm.lifetime.end.p0(i64 4, ptr %8) #6
  call void @llvm.lifetime.end.p0(i64 4, ptr %7) #6
  call void @llvm.lifetime.end.p0(i64 4, ptr %6) #6
  call void @llvm.lifetime.end.p0(i64 4, ptr %5) #6
  ret void
}