; Function Attrs: nounwind uwtable
define internal fastcc void @refr_size_form_row(ptr noundef %0) unnamed_addr #0 {
  %2 = tail call ptr @lv_obj_get_style_prop(ptr noundef %0, i32 noundef 327680, i8 noundef zeroext 18) #9
  %3 = ptrtoint ptr %2 to i64
  %.sroa.0.0.extract.trunc.i = trunc i64 %3 to i32
  %4 = tail call ptr @lv_obj_get_style_prop(ptr noundef %0, i32 noundef 327680, i8 noundef zeroext 19) #9
  %5 = ptrtoint ptr %4 to i64
  %.sroa.0.0.extract.trunc.i38 = trunc i64 %5 to i32
  %6 = tail call ptr @lv_obj_get_style_prop(ptr noundef %0, i32 noundef 327680, i8 noundef zeroext 16) #9
  %7 = ptrtoint ptr %6 to i64
  %.sroa.0.0.extract.trunc.i39 = trunc i64 %7 to i32
  %8 = tail call ptr @lv_obj_get_style_prop(ptr noundef %0, i32 noundef 327680, i8 noundef zeroext 17) #9
  %9 = ptrtoint ptr %8 to i64
  %.sroa.0.0.extract.trunc.i40 = trunc i64 %9 to i32
  %10 = tail call ptr @lv_obj_get_style_prop(ptr noundef %0, i32 noundef 327680, i8 noundef zeroext 91) #9
  %11 = ptrtoint ptr %10 to i64
  %.sroa.0.0.extract.trunc.i41 = trunc i64 %11 to i32
  %12 = tail call ptr @lv_obj_get_style_prop(ptr noundef %0, i32 noundef 327680, i8 noundef zeroext 92) #9
  %13 = ptrtoint ptr %12 to i64
  %.sroa.0.0.extract.trunc.i42 = trunc i64 %13 to i32
  %14 = tail call ptr @lv_obj_get_style_prop(ptr noundef %0, i32 noundef 327680, i8 noundef zeroext 90) #9
  %15 = tail call ptr @lv_obj_get_style_prop(ptr noundef %0, i32 noundef 327680, i8 noundef zeroext 6) #9
  %16 = ptrtoint ptr %15 to i64
  %.sroa.0.0.extract.trunc.i43 = trunc i64 %16 to i32
  %17 = tail call ptr @lv_obj_get_style_prop(ptr noundef %0, i32 noundef 327680, i8 noundef zeroext 7) #9
  %18 = ptrtoint ptr %17 to i64
  %.sroa.0.0.extract.trunc.i44 = trunc i64 %18 to i32
  %19 = getelementptr inbounds nuw i8, ptr %0, i64 68
  %20 = load i32, ptr %19, align 4, !tbaa !18
  %.not = icmp eq i32 %20, 0
  br i1 %.not, label %._crit_edge, label %.lr.ph

.lr.ph:                                           ; preds = %1
  %21 = getelementptr inbounds nuw i8, ptr %0, i64 80
  br label %22

22:                                               ; preds = %.lr.ph, %22
  %indvars.iv = phi i64 [ 0, %.lr.ph ], [ %indvars.iv.next, %22 ]
  %23 = trunc nuw i64 %indvars.iv to i32
  %24 = tail call fastcc i32 @get_row_height(ptr noundef nonnull %0, i32 noundef %23, ptr noundef %14, i32 noundef %.sroa.0.0.extract.trunc.i41, i32 noundef %.sroa.0.0.extract.trunc.i42, i32 noundef %.sroa.0.0.extract.trunc.i, i32 noundef %.sroa.0.0.extract.trunc.i38, i32 noundef %.sroa.0.0.extract.trunc.i39, i32 noundef %.sroa.0.0.extract.trunc.i40)
  %25 = tail call i32 @llvm.smin.i32(i32 %24, i32 %.sroa.0.0.extract.trunc.i44)
  %. = tail call i32 @llvm.smax.i32(i32 %25, i32 %.sroa.0.0.extract.trunc.i43)
  %26 = load ptr, ptr %21, align 8, !tbaa !20
  %27 = getelementptr inbounds nuw i32, ptr %26, i64 %indvars.iv
  store i32 %., ptr %27, align 4, !tbaa !21
  %indvars.iv.next = add nuw nsw i64 %indvars.iv, 1
  %28 = load i32, ptr %19, align 4, !tbaa !18
  %29 = zext i32 %28 to i64
  %30 = icmp samesign ult i64 %indvars.iv.next, %29
  br i1 %30, label %22, label %._crit_edge, !llvm.loop !47

._crit_edge:                                      ; preds = %22, %1
  %31 = tail call zeroext i1 @lv_obj_refresh_self_size(ptr noundef nonnull %0) #9
  tail call void @lv_obj_invalidate(ptr noundef nonnull %0) #9
  ret void
}